; Function Attrs: mustprogress nofree norecurse nosync nounwind willreturn memory(read, inaccessiblemem: none) uwtable
define hidden noundef zeroext i1 @_ZN2lp17string_is_trivialERKNSt7__cxx1112basic_stringIcSt11char_traitsIcESaIcEEE(ptr noundef nonnull readonly align 8 captures(none) dereferenceable(32) %0) local_unnamed_addr #3 personality ptr @__gxx_personality_v0 {
  %2 = load ptr, ptr %0, align 8, !tbaa !3
  %3 = getelementptr inbounds nuw i8, ptr %0, i64 8
  %4 = load i64, ptr %3, align 8, !tbaa !11
  %5 = getelementptr inbounds nuw i8, ptr %2, i64 %4
  %6 = icmp samesign eq i64 %4, 0
  br i1 %6, label %._crit_edge, label %.lr.ph

.lr.ph:                                           ; preds = %1, %8
  %.sroa.012.015 = phi ptr [ %9, %8 ], [ %2, %1 ]
  %7 = load i8, ptr %.sroa.012.015, align 1, !tbaa !12
  switch i8 %7, label %._crit_edge [
    i8 48, label %8
    i8 46, label %8
  ]

8:                                                ; preds = %.lr.ph, %.lr.ph
  %9 = getelementptr inbounds nuw i8, ptr %.sroa.012.015, i64 1
  %10 = icmp eq ptr %9, %5
  br i1 %10, label %._crit_edge, label %.lr.ph

._crit_edge:                                      ; preds = %8, %.lr.ph, %1
  %.lcssa = phi i1 [ true, %1 ], [ false, %.lr.ph ], [ true, %8 ]
  ret i1 %.lcssa
}